target datalayout = "e-m:e-p270:32:32-p271:32:32-p272:64:64-i64:64-i128:128-f80:128-n8:16:32:64-S128"
target triple = "x86_64-unknown-linux-gnu"

%class.string_buffer = type { [64 x i8], ptr, i64, i64 }
%class.ref_vector = type { %class.ref_vector_core }
%class.ref_vector_core = type { %class.ref_manager_wrapper, %class.ptr_vector.59 }
%class.ref_manager_wrapper = type { ptr }
%class.ptr_vector.59 = type { %class.vector.60 }
%class.vector.60 = type { ptr }
%class.svector.10 = type { %class.vector.11 }
%class.vector.11 = type { ptr }
%class.smt2_printer = type <{ ptr, ptr, %class.shared_occs, ptr, %class.ptr_vector.96, ptr, %class.ptr_vector.59, %class.ref_vector.98, %class.svector.103, i32, [4 x i8], %class.svector.105, %class.svector.10, %class.hashtable, %class.svector.109, %class.ref_vector.98, %class.svector.111, %class.string_buffer, i8, [3 x i8], i32, i8, i8, i8, i8, i32, i32, i8, i8, [2 x i8], i32, [4 x i8] }>
%class.shared_occs = type { ptr, i8, i8, i8, %class.ref_vector, %class.svector.94 }
%class.svector.94 = type { %class.vector.95 }
%class.vector.95 = type { ptr }
%class.ptr_vector.96 = type { %class.vector.97 }
%class.vector.97 = type { ptr }
%class.svector.103 = type { %class.vector.104 }
%class.vector.104 = type { ptr }
%class.svector.105 = type { %class.vector.106 }
%class.vector.106 = type { ptr }
%class.hashtable = type { %class.core_hashtable.base.108, [4 x i8] }
%class.core_hashtable.base.108 = type <{ ptr, i32, i32, i32 }>
%class.svector.109 = type { %class.vector.110 }
%class.vector.110 = type { ptr }
%class.ref_vector.98 = type { %class.ref_vector_core.99 }
%class.ref_vector_core.99 = type { %class.ref_manager_wrapper.100, %class.ptr_vector.101 }
%class.ref_manager_wrapper.100 = type { ptr }
%class.ptr_vector.101 = type { %class.vector.102 }
%class.vector.102 = type { ptr }
%class.svector.111 = type { %class.vector.112 }
%class.vector.112 = type { ptr }

; Function Attrs: mustprogress uwtable
define hidden void @_Z14mk_smt2_formatP9func_declR19smt2_pp_environmentRK10params_refR7obj_refI3app11ast_managerEPKc(ptr noundef %f, ptr noundef nonnull align 8 dereferenceable(56) %env, ptr noundef nonnull align 8 dereferenceable(8) %p, ptr noundef nonnull align 8 dereferenceable(16) %r, ptr noundef %cmd) #4 personality ptr @__gxx_personality_v0 {
entry:
  %f.addr = alloca ptr, align 8
  %env.addr = alloca ptr, align 8
  %p.addr = alloca ptr, align 8
  %r.addr = alloca ptr, align 8
  %cmd.addr = alloca ptr, align 8
  %pr = alloca %class.smt2_printer, align 8
  %exn.slot = alloca ptr, align 8
  %ehselector.slot = alloca i32, align 4
  store ptr %f, ptr %f.addr, align 8
  store ptr %env, ptr %env.addr, align 8
  store ptr %p, ptr %p.addr, align 8
  store ptr %r, ptr %r.addr, align 8
  store ptr %cmd, ptr %cmd.addr, align 8
  %0 = load ptr, ptr %env.addr, align 8
  %1 = load ptr, ptr %p.addr, align 8
  call void @_ZN12smt2_printerC2ER19smt2_pp_environmentRK10params_ref(ptr noundef nonnull align 8 dereferenceable(308) %pr, ptr noundef nonnull align 8 dereferenceable(56) %0, ptr noundef nonnull align 8 dereferenceable(8) %1)
  %2 = load ptr, ptr %f.addr, align 8
  %3 = load ptr, ptr %r.addr, align 8
  %4 = load ptr, ptr %cmd.addr, align 8
  invoke void @_ZN12smt2_printerclEP9func_declR7obj_refI3app11ast_managerEPKc(ptr noundef nonnull align 8 dereferenceable(308) %pr, ptr noundef %2, ptr noundef nonnull align 8 dereferenceable(16) %3, ptr noundef %4)
          to label %invoke.cont unwind label %lpad

invoke.cont:                                      ; preds = %entry
  call void @_ZN12smt2_printerD2Ev(ptr noundef nonnull align 8 dereferenceable(308) %pr) #3
  ret void

lpad:                                             ; preds = %entry
  %5 = landingpad { ptr, i32 }
          cleanup
  %6 = extractvalue { ptr, i32 } %5, 0
  store ptr %6, ptr %exn.slot, align 8
  %7 = extractvalue { ptr, i32 } %5, 1
  store i32 %7, ptr %ehselector.slot, align 4
  call void @_ZN12smt2_printerD2Ev(ptr noundef nonnull align 8 dereferenceable(308) %pr) #3
  br label %eh.resume

eh.resume:                                        ; preds = %lpad
  %exn = load ptr, ptr %exn.slot, align 8
  %sel = load i32, ptr %ehselector.slot, align 4
  %lpad.val = insertvalue { ptr, i32 } poison, ptr %exn, 0
  %lpad.val1 = insertvalue { ptr, i32 } %lpad.val, i32 %sel, 1
  resume { ptr, i32 } %lpad.val1
}